; ModuleID = '9/119.c'
source_filename = "9/119.c"
target datalayout = "e-m:e-p270:32:32-p271:32:32-p272:64:64-i64:64-f80:128-n8:16:32:64-S128"
target triple = "x86_64-pc-linux-gnu"

%struct.patient = type { [10 x i8], i32 }

@.str = private unnamed_addr constant [3 x i8] c"%d\00", align 1
@.str.1 = private unnamed_addr constant [6 x i8] c"%s %d\00", align 1
@.str.2 = private unnamed_addr constant [4 x i8] c"%s\0A\00", align 1

; Function Attrs: noinline nounwind uwtable
define dso_local void @main() #0 {
  %1 = alloca i32, align 4
  %2 = alloca i32, align 4
  %3 = alloca i32, align 4
  %4 = alloca i32, align 4
  %5 = alloca i32, align 4
  %6 = alloca i32, align 4
  %7 = alloca [100 x %struct.patient], align 16
  %8 = alloca [100 x %struct.patient], align 16
  %9 = alloca [100 x %struct.patient], align 16
  %10 = alloca %struct.patient, align 4
  store i32 0, i32* %2, align 4
  store i32 0, i32* %5, align 4
  %11 = call i32 (i8*, ...) @__isoc99_scanf(i8* getelementptr inbounds ([3 x i8], [3 x i8]* @.str, i64 0, i64 0), i32* %6)
  store i32 0, i32* %1, align 4
  br label %12

12:                                               ; preds = %27, %0
  %13 = load i32, i32* %1, align 4
  %14 = load i32, i32* %6, align 4
  %15 = icmp slt i32 %13, %14
  br i1 %15, label %16, label %30

16:                                               ; preds = %12
  %17 = load i32, i32* %1, align 4
  %18 = sext i32 %17 to i64
  %19 = getelementptr inbounds [100 x %struct.patient], [100 x %struct.patient]* %7, i64 0, i64 %18
  %20 = getelementptr inbounds %struct.patient, %struct.patient* %19, i32 0, i32 0
  %21 = getelementptr inbounds [10 x i8], [10 x i8]* %20, i64 0, i64 0
  %22 = load i32, i32* %1, align 4
  %23 = sext i32 %22 to i64
  %24 = getelementptr inbounds [100 x %struct.patient], [100 x %struct.patient]* %7, i64 0, i64 %23
  %25 = getelementptr inbounds %struct.patient, %struct.patient* %24, i32 0, i32 1
  %26 = call i32 (i8*, ...) @__isoc99_scanf(i8* getelementptr inbounds ([6 x i8], [6 x i8]* @.str.1, i64 0, i64 0), i8* %21, i32* %25)
  br label %27

27:                                               ; preds = %16
  %28 = load i32, i32* %1, align 4
  %29 = add nsw i32 %28, 1
  store i32 %29, i32* %1, align 4
  br label %12

30:                                               ; preds = %12
  store i32 0, i32* %1, align 4
  br label %31

31:                                               ; preds = %63, %30
  %32 = load i32, i32* %1, align 4
  %33 = load i32, i32* %6, align 4
  %34 = icmp slt i32 %32, %33
  br i1 %34, label %35, label %66

35:                                               ; preds = %31
  %36 = load i32, i32* %1, align 4
  %37 = sext i32 %36 to i64
  %38 = getelementptr inbounds [100 x %struct.patient], [100 x %struct.patient]* %7, i64 0, i64 %37
  %39 = getelementptr inbounds %struct.patient, %struct.patient* %38, i32 0, i32 1
  %40 = load i32, i32* %39, align 4
  %41 = icmp sge i32 %40, 60
  br i1 %41, label %42, label %52

42:                                               ; preds = %35
  %43 = load i32, i32* %2, align 4
  %44 = add nsw i32 %43, 1
  store i32 %44, i32* %2, align 4
  %45 = sext i32 %43 to i64
  %46 = getelementptr inbounds [100 x %struct.patient], [100 x %struct.patient]* %8, i64 0, i64 %45
  %47 = load i32, i32* %1, align 4
  %48 = sext i32 %47 to i64
  %49 = getelementptr inbounds [100 x %struct.patient], [100 x %struct.patient]* %7, i64 0, i64 %48
  %50 = bitcast %struct.patient* %46 to i8*
  %51 = bitcast %struct.patient* %49 to i8*
  call void @llvm.memcpy.p0i8.p0i8.i64(i8* align 16 %50, i8* align 16 %51, i64 16, i1 false)
  br label %62

52:                                               ; preds = %35
  %53 = load i32, i32* %5, align 4
  %54 = add nsw i32 %53, 1
  store i32 %54, i32* %5, align 4
  %55 = sext i32 %53 to i64
  %56 = getelementptr inbounds [100 x %struct.patient], [100 x %struct.patient]* %9, i64 0, i64 %55
  %57 = load i32, i32* %1, align 4
  %58 = sext i32 %57 to i64
  %59 = getelementptr inbounds [100 x %struct.patient], [100 x %struct.patient]* %7, i64 0, i64 %58
  %60 = bitcast %struct.patient* %56 to i8*
  %61 = bitcast %struct.patient* %59 to i8*
  call void @llvm.memcpy.p0i8.p0i8.i64(i8* align 16 %60, i8* align 16 %61, i64 16, i1 false)
  br label %62

62:                                               ; preds = %52, %42
  br label %63

63:                                               ; preds = %62
  %64 = load i32, i32* %1, align 4
  %65 = add nsw i32 %64, 1
  store i32 %65, i32* %1, align 4
  br label %31

66:                                               ; preds = %31
  %67 = load i32, i32* %2, align 4
  store i32 %67, i32* %3, align 4
  %68 = load i32, i32* %5, align 4
  store i32 %68, i32* %4, align 4
  store i32 1, i32* %1, align 4
  br label %69

69:                                               ; preds = %119, %66
  %70 = load i32, i32* %1, align 4
  %71 = load i32, i32* %3, align 4
  %72 = icmp slt i32 %70, %71
  br i1 %72, label %73, label %122

73:                                               ; preds = %69
  store i32 0, i32* %2, align 4
  br label %74

74:                                               ; preds = %115, %73
  %75 = load i32, i32* %2, align 4
  %76 = load i32, i32* %3, align 4
  %77 = load i32, i32* %1, align 4
  %78 = sub nsw i32 %76, %77
  %79 = icmp slt i32 %75, %78
  br i1 %79, label %80, label %118

80:                                               ; preds = %74
  %81 = load i32, i32* %2, align 4
  %82 = sext i32 %81 to i64
  %83 = getelementptr inbounds [100 x %struct.patient], [100 x %struct.patient]* %8, i64 0, i64 %82
  %84 = getelementptr inbounds %struct.patient, %struct.patient* %83, i32 0, i32 1
  %85 = load i32, i32* %84, align 4
  %86 = load i32, i32* %2, align 4
  %87 = add nsw i32 %86, 1
  %88 = sext i32 %87 to i64
  %89 = getelementptr inbounds [100 x %struct.patient], [100 x %struct.patient]* %8, i64 0, i64 %88
  %90 = getelementptr inbounds %struct.patient, %struct.patient* %89, i32 0, i32 1
  %91 = load i32, i32* %90, align 4
  %92 = icmp slt i32 %85, %91
  br i1 %92, label %93, label %114

93:                                               ; preds = %80
  %94 = load i32, i32* %2, align 4
  %95 = sext i32 %94 to i64
  %96 = getelementptr inbounds [100 x %struct.patient], [100 x %struct.patient]* %8, i64 0, i64 %95
  %97 = bitcast %struct.patient* %10 to i8*
  %98 = bitcast %struct.patient* %96 to i8*
  call void @llvm.memcpy.p0i8.p0i8.i64(i8* align 4 %97, i8* align 16 %98, i64 16, i1 false)
  %99 = load i32, i32* %2, align 4
  %100 = sext i32 %99 to i64
  %101 = getelementptr inbounds [100 x %struct.patient], [100 x %struct.patient]* %8, i64 0, i64 %100
  %102 = load i32, i32* %2, align 4
  %103 = add nsw i32 %102, 1
  %104 = sext i32 %103 to i64
  %105 = getelementptr inbounds [100 x %struct.patient], [100 x %struct.patient]* %8, i64 0, i64 %104
  %106 = bitcast %struct.patient* %101 to i8*
  %107 = bitcast %struct.patient* %105 to i8*
  call void @llvm.memcpy.p0i8.p0i8.i64(i8* align 16 %106, i8* align 16 %107, i64 16, i1 false)
  %108 = load i32, i32* %2, align 4
  %109 = add nsw i32 %108, 1
  %110 = sext i32 %109 to i64
  %111 = getelementptr inbounds [100 x %struct.patient], [100 x %struct.patient]* %8, i64 0, i64 %110
  %112 = bitcast %struct.patient* %111 to i8*
  %113 = bitcast %struct.patient* %10 to i8*
  call void @llvm.memcpy.p0i8.p0i8.i64(i8* align 16 %112, i8* align 4 %113, i64 16, i1 false)
  br label %114

114:                                              ; preds = %93, %80
  br label %115

115:                                              ; preds = %114
  %116 = load i32, i32* %2, align 4
  %117 = add nsw i32 %116, 1
  store i32 %117, i32* %2, align 4
  br label %74

118:                                              ; preds = %74
  br label %119

119:                                              ; preds = %118
  %120 = load i32, i32* %1, align 4
  %121 = add nsw i32 %120, 1
  store i32 %121, i32* %1, align 4
  br label %69

122:                                              ; preds = %69
  store i32 0, i32* %1, align 4
  br label %123

123:                                              ; preds = %134, %122
  %124 = load i32, i32* %1, align 4
  %125 = load i32, i32* %3, align 4
  %126 = icmp slt i32 %124, %125
  br i1 %126, label %127, label %137

127:                                              ; preds = %123
  %128 = load i32, i32* %1, align 4
  %129 = sext i32 %128 to i64
  %130 = getelementptr inbounds [100 x %struct.patient], [100 x %struct.patient]* %8, i64 0, i64 %129
  %131 = getelementptr inbounds %struct.patient, %struct.patient* %130, i32 0, i32 0
  %132 = getelementptr inbounds [10 x i8], [10 x i8]* %131, i64 0, i64 0
  %133 = call i32 (i8*, ...) @printf(i8* getelementptr inbounds ([4 x i8], [4 x i8]* @.str.2, i64 0, i64 0), i8* %132)
  br label %134

134:                                              ; preds = %127
  %135 = load i32, i32* %1, align 4
  %136 = add nsw i32 %135, 1
  store i32 %136, i32* %1, align 4
  br label %123

137:                                              ; preds = %123
  store i32 0, i32* %1, align 4
  br label %138

138:                                              ; preds = %149, %137
  %139 = load i32, i32* %1, align 4
  %140 = load i32, i32* %4, align 4
  %141 = icmp slt i32 %139, %140
  br i1 %141, label %142, label %152

142:                                              ; preds = %138
  %143 = load i32, i32* %1, align 4
  %144 = sext i32 %143 to i64
  %145 = getelementptr inbounds [100 x %struct.patient], [100 x %struct.patient]* %9, i64 0, i64 %144
  %146 = getelementptr inbounds %struct.patient, %struct.patient* %145, i32 0, i32 0
  %147 = getelementptr inbounds [10 x i8], [10 x i8]* %146, i64 0, i64 0
  %148 = call i32 (i8*, ...) @printf(i8* getelementptr inbounds ([4 x i8], [4 x i8]* @.str.2, i64 0, i64 0), i8* %147)
  br label %149

149:                                              ; preds = %142
  %150 = load i32, i32* %1, align 4
  %151 = add nsw i32 %150, 1
  store i32 %151, i32* %1, align 4
  br label %138

152:                                              ; preds = %138
  ret void
}

declare dso_local i32 @__isoc99_scanf(i8*, ...) #1

; Function Attrs: argmemonly nounwind willreturn
declare void @llvm.memcpy.p0i8.p0i8.i64(i8* noalias nocapture writeonly, i8* noalias nocapture readonly, i64, i1 immarg) #2

declare dso_local i32 @printf(i8*, ...) #1


!llvm.module.flags = !{!0}
!llvm.ident = !{!1}

!0 = !{i32 1, !"wchar_size", i32 4}
!1 = !{!"clang version 10.0.0-4ubuntu1 "}
